cpandas.indexes.base
_new_Index
p0
(cpandas.indexes.base
Index
p1
(dp2
S'data'
p3
cnumpy.core.multiarray
_reconstruct
p4
(cnumpy
ndarray
p5
(I0
tp6
S'b'
p7
tp8
Rp9
(I1
(I942
tp10
cnumpy
dtype
p11
(S'O8'
p12
I0
I1
tp13
Rp14
(I3
S'|'
p15
NNNI-1
I-1
I63
tp16
bI00
(lp17
VEMAIL
p18
aVNAME
p19
aVPHONE
p20
aVa
p21
aVaaai
p22
aVabet
p23
aVabroad
p24
aVacademic
p25
aVacademy
p26
aVaccess
p27
aVaccessibility
p28
aVaccomplishment
p29
aVaccount
p30
aVaccreditation
p31
aVachievement
p32
aVacm
p33
aVacross
p34
aVaction
p35
aVactivity
p36
aVadaptive
p37
aVadd
p38
aVaddress
p39
aVadjunct
p40
aVadministration
p41
aVadministrative
p42
aVadministrator
p43
aVadmission
p44
aVadvanced
p45
aVadvising
p46
aVadvisor
p47
aVadvisory
p48
aVaffair
p49
aVaffiliate
p50
aVaffiliation
p51
aVagency
p52
aVagent
p53
aVaid
p54
aValgorithm
p55
aValso
p56
aValumnus
p57
aVam
p58
aVamerican
p59
aVamong
p60
aVanalysis
p61
aVanalyst
p62
aVanalytics
p63
aVanimation
p64
aVannenberg
p65
aVannouncement
p66
aVannual
p67
aVapp
p68
aVapplicant
p69
aVapplication
p70
aVapplied
p71
aVapplphysdev
p72
aVapply
p73
aVappointment
p74
aVapproach
p75
aVarchitecture
p76
aVarchive
p77
aVarea
p78
aVart
p79
aVarticle
p80
aVartificial
p81
aVasked
p82
aVassessment
p83
aVassistance
p84
aVassistant
p85
aVassistantteaching
p86
aVassociate
p87
aVassociation
p88
aVassurance
p89
aVat
p90
aVathletics
p91
aVatlanta
p92
aVattend
p93
aVavailable
p94
aVaward
p95
aVawarded
p96
aVaz
p97
aVb
p98
aVba
p99
aVbachelor
p100
aVbased
p101
aVbehavior
p102
aVbenefit
p103
aVberkeley
p104
aVbeyster
p105
aVbh
p106
aVbig
p107
aVbio
p108
aVbioeecs
p109
aVbioinformatics
p110
aVbiological
p111
aVbiology
p112
aVbiomedical
p113
aVbldg
p114
aVboard
p115
aVbook
p116
aVbookstore
p117
aVbox
p118
aVbrain
p119
aVbritish
p120
aVbsc
p121
aVbsms
p122
aVbuilding
p123
aVbusiness
p124
aVbwrc
p125
aVc
p126
aVca
p127
aVcalendar
p128
aVcalifornia
p129
aVcaltechedu
p130
aVcampus
p131
aVcanada
p132
aVcancer
p133
aVcandidate
p134
aVcareer
p135
aVcatalog
p136
aVcece
p137
aVcelebration
p138
aVcell
p139
aVcenter
p140
aVcepsr
p141
aVcere
p142
aVcertificate
p143
aVchair
p144
aVchallenge
p145
aVchancellor
p146
aVchapter
p147
aVcheck
p148
aVchecklist
p149
aVchemistry
p150
aVchen
p151
aVchicago
p152
aVci
p153
aVcircuit
p154
aVcivil
p155
aVclass
p156
aVclassroom
p157
aVclick
p158
aVclinical
p159
aVcloud
p160
aVclub
p161
aVcmpt
p162
aVcode
p163
aVcoe
p164
aVcognitive
p165
aVcollaboration
p166
aVcollaborative
p167
aVcollege
p168
aVcolloquium
p169
aVcolumbia
p170
aVcombinatorial
p171
aVcombined
p172
aVcommatcsprincetonedu
p173
aVcommittee
p174
aVcommunication
p175
aVcommunity
p176
aVcompany
p177
aVcompetition
p178
aVcompiler
p179
aVcomplex
p180
aVcomplexity
p181
aVcomputation
p182
aVcomputational
p183
aVcomputer
p184
aVcomputing
p185
aVconcentration
p186
aVconference
p187
aVconnect
p188
aVconnection
p189
aVcontact
p190
aVcontent
p191
aVcontest
p192
aVcontinue
p193
aVcontinuing
p194
aVcontribution
p195
aVcontrol
p196
aVcoop
p197
aVcoordinator
p198
aVcopyright
p199
aVcore
p200
aVcorporate
p201
aVcouncil
p202
aVcourse
p203
aVcredit
p204
aVcryptography
p205
aVcsail
p206
aVcsb
p207
aVcsc
p208
aVcse
p209
aVcsnyuedu
p210
aVcsuncedu
p211
aVcswashingtonedu
p212
aVcurrent
p213
aVcurrently
p214
aVcurriculum
p215
aVcv
p216
aVcyber
p217
aVcyberphysical
p218
aVcybersecurity
p219
aVd
p220
aVdata
p221
aVdatabase
p222
aVdbh
p223
aVdc
p224
aVdeadline
p225
aVdean
p226
aVdeason
p227
aVdec
p228
aVdecember
p229
aVdecision
p230
aVdefense
p231
aVdegree
p232
aVdepartment
p233
aVdepartmental
p234
aVdept
p235
aVdeschutes
p236
aVdescription
p237
aVdesign
p238
aVdetail
p239
aVdevabhaktuni
p240
aVdevelop
p241
aVdeveloping
p242
aVdevelopment
p243
aVdevice
p244
aVdigital
p245
aVdirection
p246
aVdirector
p247
aVdirectory
p248
aVdisability
p249
aVdiscipline
p250
aVdiscovery
p251
aVdiscrete
p252
aVdiscus
p253
aVdisease
p254
aVdisplay
p255
aVdissertation
p256
aVdistance
p257
aVdistinguished
p258
aVdistributed
p259
aVdiversity
p260
aVdivision
p261
aVdoctoral
p262
aVdr
p263
aVdrive
p264
aVdual
p265
aVdynamic
p266
aVe
p267
aVearly
p268
aVeb
p269
aVec
p270
aVece
p271
aVeconomics
p272
aVecot
p273
aVeducation
p274
aVeducational
p275
aVee
p276
aVeec
p277
aVefficient
p278
aVelectrical
p279
aVelectronic
p280
aVelectronics
p281
aVemail
p282
aVembedded
p283
aVeme
p284
aVemergency
p285
aVemerging
p286
aVemeriti
p287
aVemeritus
p288
aVemphasis
p289
aVemployment
p290
aVenb
p291
aVendobj
p292
aVendowed
p293
aVendstream
p294
aVenergy
p295
aVeng
p296
aVengineer
p297
aVengineering
p298
aVenrollment
p299
aVentitled
p300
aVentrepreneurship
p301
aVenvironment
p302
aVenvironmental
p303
aVepidemiology
p304
aVespecially
p305
aVetc
p306
aVevaluation
p307
aVevent
p308
aVexam
p309
aVexcellence
p310
aVexecutive
p311
aVexperience
p312
aVexpert
p313
aVexpertise
p314
aVexplore
p315
aVext
p316
aVexternal
p317
aVf
p318
aVfa
p319
aVfaangleright
p320
aVfacebook
p321
aVfacility
p322
aVfact
p323
aVfaculty
p324
aVfacultystaff
p325
aVfall
p326
aVfamily
p327
aVfaq
p328
aVfast
p329
aVfax
p330
aVfeature
p331
aVfeatured
p332
aVfederal
p333
aVfee
p334
aVfeedback
p335
aVfellow
p336
aVfellowship
p337
aVfield
p338
aVfile
p339
aVfinal
p340
aVfinance
p341
aVfinancial
p342
aVfind
p343
aVfirst
p344
aVfiu
p345
aVflorida
p346
aVfluid
p347
aVfocus
p348
aVfollow
p349
aVfollowing
p350
aVfood
p351
aVfor
p352
aVform
p353
aVformal
p354
aVfoundation
p355
aVfour
p356
aVfrequently
p357
aVfriday
p358
aVfriend
p359
aVfull
p360
aVfulltime
p361
aVfund
p362
aVfunding
p363
aVfuture
p364
aVg
p365
aVgallery
p366
aVgame
p367
aVgdc
p368
aVgeneral
p369
aVgeneration
p370
aVgenomics
p371
aVgeometry
p372
aVgeorgia
p373
aVget
p374
aVgift
p375
aVgive
p376
aVgiving
p377
aVglobal
p378
aVgo
p379
aVgoogle
p380
aVgovernment
p381
aVgrad
p382
aVgraduate
p383
aVgraduation
p384
aVgrant
p385
aVgraph
p386
aVgraphic
p387
aVgreat
p388
aVgrid
p389
aVgroup
p390
aVguideline
p391
aVh
p392
aVhall
p393
aVhandbook
p394
aVhardware
p395
aVhci
p396
aVhead
p397
aVhealth
p398
aVhealthcare
p399
aVheld
p400
aVhelp
p401
aVhigh
p402
aVhighlight
p403
aVhighperformance
p404
aVhistory
p405
aVhold
p406
aVhome
p407
aVhomepage
p408
aVhonor
p409
aVhour
p410
aVhousing
p411
aVhttpscsuwaterloocafacultysta
p412
aVhuman
p413
aVhumancomputer
p414
aVhumanity
p415
aVi
p416
aVibiomed
p417
aVibm
p418
aVicircuits
p419
aVict
p420
aVie
p421
aVieee
p422
aVii
p423
aViiai
p424
aViinfosys
p425
aViisystems
p426
aVillinois
p427
aVimage
p428
aVimaging
p429
aVimg
p430
aVimpact
p431
aVimplementation
p432
aVimportant
p433
aVinclude
p434
aVincluding
p435
aVindependent
p436
aVindex
p437
aVindividual
p438
aVindustrial
p439
aVindustry
p440
aVinference
p441
aVinfo
p442
aVinformatics
p443
aVinformation
p444
aVinitiative
p445
aVinnovation
p446
aVinstitute
p447
aVinstitutional
p448
aVinstructor
p449
aVintegrated
p450
aVintelligence
p451
aVintelligent
p452
aVinteraction
p453
aVinteractive
p454
aVinterdisciplinary
p455
aVinterest
p456
aVinterested
p457
aVinterface
p458
aVinternal
p459
aVinternational
p460
aVinternet
p461
aVinternship
p462
aVintroduction
p463
aVinvolved
p464
aVissue
p465
aVist
p466
aVit
p467
aVj
p468
aVjavascript
p469
aVjenna
p470
aVjob
p471
aVjoin
p472
aVjoint
p473
aVjosephine
p474
aVjournal
p475
aVjump
p476
aVk
p477
aVkeller
p478
aVknowledge
p479
aVl
p480
aVlab
p481
aVlaboratory
p482
aVlambuth
p483
aVlanguage
p484
aVlarge
p485
aVlargescale
p486
aVlast
p487
aVlaw
p488
aVlead
p489
aVleader
p490
aVleadership
p491
aVlearn
p492
aVlearning
p493
aVleave
p494
aVlecture
p495
aVlecturer
p496
aVlee
p497
aVlegal
p498
aVlevel
p499
aVlibrary
p500
aVlife
p501
aVlike
p502
aVlink
p503
aVlinkedin
p504
aVlinux
p505
aVlist
p506
aVlisting
p507
aVliu
p508
aVlocation
p509
aVlogic
p510
aVlogin
p511
aVlwsn
p512
aVm
p513
aVmachine
p514
aVmadmuc
p515
aVmagazine
p516
aVmail
p517
aVmailing
p518
aVmajor
p519
aVmake
p520
aVmanagement
p521
aVmanager
p522
aVmanufacturing
p523
aVmany
p524
aVmap
p525
aVmassachusetts
p526
aVmaster
p527
aVmaterial
p528
aVmath
p529
aVmathematical
p530
aVmathematics
p531
aVmay
p532
aVmba
p533
aVmd
p534
aVmeasurement
p535
aVmeb
p536
aVmechanic
p537
aVmechanical
p538
aVmedical
p539
aVmedicine
p540
aVmedium
p541
aVmeet
p542
aVmeeting
p543
aVmember
p544
aVmemory
p545
aVmemphis
p546
aVmenu
p547
aVmessage
p548
aVmethod
p549
aVmexico
p550
aVmichigan
p551
aVmicrosoft
p552
aVmillion
p553
aVmining
p554
aVminor
p555
aVmission
p556
aVmit
p557
aVmobile
p558
aVmodel
p559
aVmodeling
p560
aVmolecular
p561
aVmonday
p562
aVmore
p563
aVmr
p564
aVmsc
p565
aVmtl
p566
aVmulticore
p567
aVmultimedia
p568
aVn
p569
aVna
p570
aVname
p571
aVnamed
p572
aVnanotech
p573
aVnational
p574
aVnatural
p575
aVnaval
p576
aVnavigation
p577
aVnc
p578
aVncsuedu
p579
aVneed
p580
aVnetwork
p581
aVnetworked
p582
aVnetworking
p583
aVneuroscience
p584
aVnew
p585
aVnews
p586
aVnewsletter
p587
aVnewsroom
p588
aVnext
p589
aVni
p590
aVnov
p591
aVnovel
p592
aVnovember
p593
aVnsf
p594
aVnumber
p595
aVnumerical
p596
aVo
p597
aVobj
p598
aVobject
p599
aVobjective
p600
aVocics
p601
aVoctober
p602
aVoffer
p603
aVoffered
p604
aVoffering
p605
aVoffice
p606
aVohio
p607
aVon
p608
aVone
p609
aVonline
p610
aVopen
p611
aVopening
p612
aVoperating
p613
aVoperation
p614
aVopportunity
p615
aVoptimization
p616
aVoption
p617
aVoregon
p618
aVorganization
p619
aVorientation
p620
aVothers
p621
aVoutcome
p622
aVoutreach
p623
aVoutstanding
p624
aVoverview
p625
aVp
p626
aVpackard
p627
aVpage
p628
aVpaper
p629
aVparallel
p630
aVparent
p631
aVparking
p632
aVpart
p633
aVparticipation
p634
aVpartner
p635
aVpartnership
p636
aVparttime
p637
aVpast
p638
aVpattern
p639
aVpdf
p640
aVpe
p641
aVpennsylvania
p642
aVpeople
p643
aVperformance
p644
aVpersonal
p645
aVphd
p646
aVphilosophy
p647
aVphone
p648
aVphoto
p649
aVphysic
p650
aVphysical
p651
aVpi
p652
aVplan
p653
aVplanning
p654
aVplease
p655
aVpm
p656
aVpoint
p657
aVpolicy
p658
aVportal
p659
aVposition
p660
aVpost
p661
aVpostdoc
p662
aVpostdoctoral
p663
aVpostdoctorate
p664
aVposter
p665
aVposting
p666
aVpower
p667
aVpractice
p668
aVpresentation
p669
aVpresented
p670
aVpresident
p671
aVprestigious
p672
aVprimary
p673
aVprinceton
p674
aVprinting
p675
aVprivacy
p676
aVprize
p677
aVproblem
p678
aVprocess
p679
aVprocessing
p680
aVprof
p681
aVprofessional
p682
aVprofessor
p683
aVprofessorship
p684
aVprofile
p685
aVprogram
p686
aVprogramming
p687
aVproject
p688
aVproperty
p689
aVproposal
p690
aVprospective
p691
aVprotected
p692
aVprotocol
p693
aVprovide
p694
aVprovost
p695
aVpublic
p696
aVpublication
p697
aVpublished
p698
aVpurdue
p699
aVq
p700
aVquality
p701
aVquantum
p702
aVquestion
p703
aVr
p704
aVread
p705
aVrealtime
p706
aVreasoning
p707
aVreceive
p708
aVreceived
p709
aVreceives
p710
aVrecent
p711
aVrecently
p712
aVrecipient
p713
aVrecognition
p714
aVrecognized
p715
aVrecreation
p716
aVrecruitment
p717
aVregarding
p718
aVregent
p719
aVregional
p720
aVregistration
p721
aVreimbursement
p722
aVrelated
p723
aVrelation
p724
aVreliability
p725
aVremote
p726
aVreport
p727
aVrepresentation
p728
aVrequest
p729
aVrequirement
p730
aVresearch
p731
aVresearcher
p732
aVreserved
p733
aVresource
p734
aVretrieval
p735
aVreu
p736
aVriceedu
p737
aVright
p738
aVrle
p739
aVrobot
p740
aVrobotics
p741
aVrole
p742
aVroom
p743
aVryerson
p744
aVs
p745
aVsafety
p746
aVsaskatchewan
p747
aVsc
p748
aVscalable
p749
aVscale
p750
aVschedule
p751
aVscheduling
p752
aVscholar
p753
aVscholarship
p754
aVschool
p755
aVscience
p756
aVscienceengr
p757
aVscientific
p758
aVscientist
p759
aVscis
p760
aVsea
p761
aVsearch
p762
aVsecond
p763
aVsecure
p764
aVsecurity
p765
aVsee
p766
aVselect
p767
aVselected
p768
aVsemiconductor
p769
aVseminar
p770
aVsend
p771
aVsenior
p772
aVsensing
p773
aVsensor
p774
aVseptember
p775
aVserc
p776
aVseries
p777
aVserved
p778
aVservice
p779
aVsession
p780
aVset
p781
aVsetup
p782
aVseveral
p783
aVsheet
p784
aVsignal
p785
aVsignificant
p786
aVsimulation
p787
aVsince
p788
aVsite
p789
aVsitemap
p790
aVskill
p791
aVskip
p792
aVsmu
p793
aVsocial
p794
aVsociety
p795
aVsoda
p796
aVsoftware
p797
aVsolid
p798
aVsolution
p799
aVspace
p800
aVspeaker
p801
aVspecial
p802
aVspeech
p803
aVsport
p804
aVssoe
p805
aVstaff
p806
aVstanford
p807
aVstart
p808
aVstate
p809
aVstatement
p810
aVstatistic
p811
aVstatistical
p812
aVstatus
p813
aVstavness
p814
aVstay
p815
aVstep
p816
aVstochastic
p817
aVstorage
p818
aVstory
p819
aVstrategic
p820
aVstream
p821
aVstreet
p822
aVstructure
p823
aVstudent
p824
aVstudy
p825
aVstyleborderpx
p826
aVsubmenu
p827
aVsuccess
p828
aVsummer
p829
aVsupervisor
p830
aVsupport
p831
aVsustainable
p832
aVsutardja
p833
aVsymposium
p834
aVsynthesis
p835
aVsystem
p836
aVt
p837
aVta
p838
aVtake
p839
aVtalk
p840
aVtaught
p841
aVteacher
p842
aVteaching
p843
aVteam
p844
aVtech
p845
aVtechnical
p846
aVtechnique
p847
aVtechnological
p848
aVtechnology
p849
aVtel
p850
aVtennessee
p851
aVtenuretrack
p852
aVterm
p853
aVtesting
p854
aVtexas
p855
aVtext
p856
aVth
p857
aVtheoretical
p858
aVtheory
p859
aVthesis
p860
aVthing
p861
aVthorvaldson
p862
aVthree
p863
aVthursday
p864
aVtiger
p865
aVtime
p866
aVtimeline
p867
aVtitle
p868
aVtoday
p869
aVtoggle
p870
aVtoledo
p871
aVtool
p872
aVtop
p873
aVtopic
p874
aVtoronto
p875
aVtour
p876
aVtrack
p877
aVtraining
p878
aVtranscript
p879
aVtransfer
p880
aVtravel
p881
aVtuition
p882
aVtutoring
p883
aVtwitter
p884
aVtwo
p885
aVtype
p886
aVu
p887
aVubiquitous
p888
aVuc
p889
aVucla
p890
aVud
p891
aVum
p892
aVumichedu
p893
aVumn
p894
aVundergrad
p895
aVundergraduate
p896
aVunderstanding
p897
aVunit
p898
aVuniv
p899
aVuniversity
p900
aVunstoppable
p901
aVuo
p902
aVuofm
p903
aVupcoming
p904
aVupdate
p905
aVurbanachampaign
p906
aVusa
p907
aVuse
p908
aVuser
p909
aVusf
p910
aVusing
p911
aVut
p912
aVutc
p913
aVuw
p914
aVv
p915
aVvarious
p916
aVverification
p917
aVveteran
p918
aVvideo
p919
aVview
p920
aVvirtual
p921
aVvision
p922
aVvisit
p923
aVvisiting
p924
aVvisitor
p925
aVvisual
p926
aVvisualization
p927
aVvitae
p928
aVvlsi
p929
aVw
p930
aVwant
p931
aVwashington
p932
aVwater
p933
aVwaterloo
p934
aVway
p935
aVweb
p936
aVwebmaster
p937
aVwebsite
p938
aVwednesday
p939
aVweir
p940
aVwelcome
p941
aVwell
p942
aVwilliamson
p943
aVwin
p944
aVwind
p945
aVwindow
p946
aVwireless
p947
aVwithin
p948
aVwoman
p949
aVwork
p950
aVworking
p951
aVworkshop
p952
aVworld
p953
aVwwh
p954
aVx
p955
aVy
p956
aVyear
p957
aVyoutube
p958
aVz
p959
atp960
bsS'name'
p961
Nstp962
Rp963
.