cpandas.core.indexes.base
_new_Index
p0
(cpandas.core.indexes.base
Index
p1
(dp2
S'data'
p3
cnumpy.core.multiarray
_reconstruct
p4
(cnumpy
ndarray
p5
(I0
tp6
S'b'
p7
tp8
Rp9
(I1
(I506
tp10
cnumpy
dtype
p11
(S'O8'
p12
I0
I1
tp13
Rp14
(I3
S'|'
p15
NNNI-1
I-1
I63
tp16
bI00
(lp17
VEMAIL
p18
aVNAME
p19
aVPHONE
p20
aVTITLE
p21
aVabroad
p22
aVacademic
p23
aVacademy
p24
aVaccess
p25
aVaccessibility
p26
aVaccount
p27
aVaccreditation
p28
aVactivity
p29
aVadditional
p30
aVaddress
p31
aVadministration
p32
aVadministrative
p33
aVadministrator
p34
aVadmission
p35
aVadmitted
p36
aVadvanced
p37
aVadvancement
p38
aVadvisement
p39
aVadvising
p40
aVaffair
p41
aVaffiliate
p42
aValberta
p43
aValgorithm
p44
aValliance
p45
aValso
p46
aValumnus
p47
aVanalysis
p48
aVanalytics
p49
aVannouncement
p50
aVannual
p51
aVapplication
p52
aVapplied
p53
aVapply
p54
aVappointment
p55
aVarchitecture
p56
aVarchive
p57
aVarea
p58
aVaround
p59
aVart
p60
aVartificial
p61
aVaskuvic
p62
aVassistance
p63
aVassociation
p64
aVathletics
p65
aVatlanta
p66
aVauditorium
p67
aVavailable
p68
aVaward
p69
aVawarded
p70
aVb
p71
aVbachelor
p72
aVbenefit
p73
aVbesbswy
p74
aVbioinformatics
p75
aVbiological
p76
aVbiomedical
p77
aVblackboard
p78
aVbookstore
p79
aVbuilding
p80
aVbusiness
p81
aVcalendar
p82
aVcampus
p83
aVcanada
p84
aVcareer
p85
aVcatalog
p86
aVcelebration
p87
aVcenter
p88
aVcentre
p89
aVcertificate
p90
aVchair
p91
aVchallenge
p92
aVchange
p93
aVchart
p94
aVcheck
p95
aVchecklist
p96
aVchemistry
p97
aVchoose
p98
aVcics
p99
aVcidse
p100
aVcity
p101
aVcivil
p102
aVclass
p103
aVclassroom
p104
aVclick
p105
aVclub
p106
aVcode
p107
aVcollaboration
p108
aVcollection
p109
aVcollege
p110
aVcolloquium
p111
aVcommittee
p112
aVcommon
p113
aVcommunication
p114
aVcompensation
p115
aVcomputational
p116
aVcomputer
p117
aVcomputing
p118
aVconcentration
p119
aVconduct
p120
aVconference
p121
aVconnect
p122
aVconnection
p123
aVcontact
p124
aVcontent
p125
aVcontinuing
p126
aVcontrol
p127
aVcoop
p128
aVcooperative
p129
aVcopyright
p130
aVcore
p131
aVcorporate
p132
aVcost
p133
aVcould
p134
aVcounselling
p135
aVcourse
p136
aVcoursespaces
p137
aVcredit
p138
aVculture
p139
aVcurrent
p140
aVcurriculum
p141
aVdata
p142
aVdatabase
p143
aVdate
p144
aVdeadline
p145
aVdean
p146
aVdecember
p147
aVdecision
p148
aVdefense
p149
aVdegree
p150
aVdepartment
p151
aVdescription
p152
aVdesign
p153
aVdesk
p154
aVdevelopment
p155
aVdigital
p156
aVdining
p157
aVdirection
p158
aVdirector
p159
aVdirectory
p160
aVdisability
p161
aVdiscovery
p162
aVdistance
p163
aVdistributed
p164
aVdiversity
p165
aVdivision
p166
aVdonor
p167
aVdownload
p168
aVdpartement
p169
aVdual
p170
aVearth
p171
aVeducation
p172
aVeducational
p173
aVemergency
p174
aVemployee
p175
aVemployer
p176
aVemployment
p177
aVenergy
p178
aVengagement
p179
aVengineer
p180
aVengineering
p181
aVenrollment
p182
aVentrepreneurship
p183
aVenvironment
p184
aVenvironmental
p185
aVequipment
p186
aVerror
p187
aVevent
p188
aVexam
p189
aVexcellence
p190
aVexecutive
p191
aVexperience
p192
aVexpert
p193
aVexplore
p194
aVexternal
p195
aVfacebook
p196
aVfacility
p197
aVfact
p198
aVfaculty
p199
aVfamily
p200
aVfaq
p201
aVfax
p202
aVfeatured
p203
aVfee
p204
aVfeedback
p205
aVfellow
p206
aVfellowship
p207
aVfile
p208
aVfinance
p209
aVfinancial
p210
aVfind
p211
aVfirst
p212
aVfollow
p213
aVfollowing
p214
aVfood
p215
aVfor
p216
aVform
p217
aVfound
p218
aVfoundation
p219
aVfree
p220
aVfriend
p221
aVfull
p222
aVfunding
p223
aVfuture
p224
aVgallery
p225
aVgame
p226
aVgeneral
p227
aVgetting
p228
aVgift
p229
aVgive
p230
aVgiving
p231
aVglobal
p232
aVgoogle
p233
aVgovernance
p234
aVgovernment
p235
aVgrade
p236
aVgraduate
p237
aVgraduation
p238
aVgrant
p239
aVgraphic
p240
aVgroup
p241
aVguide
p242
aVguideline
p243
aVhandbook
p244
aVhealth
p245
aVhelp
p246
aVhigh
p247
aVhistory
p248
aVhold
p249
aVhome
p250
aVhonor
p251
aVhour
p252
aVhousing
p253
aVhttp
p254
aVhumanity
p255
aVillinois
p256
aVimage
p257
aVimportant
p258
aVindex
p259
aVindigenous
p260
aVindustrial
p261
aVindustry
p262
aVinfo
p263
aVinformatics
p264
aVinformation
p265
aVinitiative
p266
aVinnovation
p267
aVinstagram
p268
aVinstitute
p269
aVinstructional
p270
aVintelligence
p271
aVinteraction
p272
aVinterdisciplinary
p273
aVinterest
p274
aVinternational
p275
aVinternet
p276
aVinternship
p277
aVinvalid
p278
aVinvolved
p279
aVissue
p280
aVjob
p281
aVjoin
p282
aVjoint
p283
aVknowledge
p284
aVlab
p285
aVlaboratory
p286
aVlanguage
p287
aVleadership
p288
aVlearning
p289
aVlecture
p290
aVlegal
p291
aVlibrarian
p292
aVlibrary
p293
aVlife
p294
aVlike
p295
aVlink
p296
aVlocation
p297
aVlogin
p298
aVlooking
p299
aVmachine
p300
aVmagazine
p301
aVmailing
p302
aVmajor
p303
aVmake
p304
aVmanufacturing
p305
aVmap
p306
aVmaster
p307
aVmaterial
p308
aVmathematical
p309
aVmechanical
p310
aVmedical
p311
aVmedium
p312
aVmeet
p313
aVmember
p314
aVmenu
p315
aVmessage
p316
aVmethod
p317
aVmicrosoft
p318
aVmilwaukee
p319
aVmining
p320
aVminor
p321
aVmission
p322
aVmissouri
p323
aVmobile
p324
aVmodeling
p325
aVmonth
p326
aVmusic
p327
aVname
p328
aVnational
p329
aVnatural
p330
aVnavigation
p331
aVneed
p332
aVnetwork
p333
aVnetworking
p334
aVnews
p335
aVnewsletter
p336
aVnext
p337
aVnotice
p338
aVnovember
p339
aVnumber
p340
aVnursing
p341
aVoctober
p342
aVoffer
p343
aVoffered
p344
aVoffice
p345
aVohio
p346
aVonline
p347
aVopen
p348
aVoperation
p349
aVoperator
p350
aVopportunity
p351
aVoption
p352
aVorganization
p353
aVorientation
p354
aVoutreach
p355
aVoutstanding
p356
aVoverview
p357
aVpage
p358
aVpanther
p359
aVpaper
p360
aVparallel
p361
aVparking
p362
aVpart
p363
aVpartner
p364
aVpassword
p365
aVpeople
p366
aVperformance
p367
aVpersonal
p368
aVphd
p369
aVphoto
p370
aVphysic
p371
aVplan
p372
aVplanning
p373
aVplease
p374
aVpolicy
p375
aVpopular
p376
aVportal
p377
aVposition
p378
aVpostdoctoral
p379
aVposting
p380
aVpowered
p381
aVpresident
p382
aVprimary
p383
aVprinting
p384
aVprivacy
p385
aVproblem
p386
aVprocedure
p387
aVprocess
p388
aVprocessing
p389
aVprofession
p390
aVprofessional
p391
aVprofile
p392
aVprogram
p393
aVprogramming
p394
aVproject
p395
aVproperty
p396
aVprospective
p397
aVpublic
p398
aVpublication
p399
aVquestion
p400
aVrecognition
p401
aVrecreation
p402
aVrecruit
p403
aVregistrar
p404
aVregistration
p405
aVrelation
p406
aVreport
p407
aVrequest
p408
aVrequested
p409
aVrequirement
p410
aVresearch
p411
aVresidence
p412
aVresource
p413
aVresult
p414
aVreturn
p415
aVreview
p416
aVright
p417
aVroom
p418
aVsafety
p419
aVschedule
p420
aVscholar
p421
aVscholarship
p422
aVschool
p423
aVscience
p424
aVsearch
p425
aVsecondary
p426
aVsecurity
p427
aVsemester
p428
aVseminar
p429
aVseries
p430
aVserver
p431
aVservice
p432
aVshare
p433
aVshow
p434
aVsiebel
p435
aVsign
p436
aVsite
p437
aVskip
p438
aVslip
p439
aVsocial
p440
aVsociety
p441
aVsoftware
p442
aVsolution
p443
aVsorry
p444
aVspace
p445
aVspecial
p446
aVsport
p447
aVstaff
p448
aVstatement
p449
aVstatistic
p450
aVstatistical
p451
aVstatus
p452
aVstay
p453
aVstep
p454
aVstrategic
p455
aVstub
p456
aVstudent
p457
aVstudy
p458
aVsubject
p459
aVsuccess
p460
aVsummary
p461
aVsupport
p462
aVsystem
p463
aVtake
p464
aVtalk
p465
aVteacher
p466
aVteam
p467
aVtech
p468
aVtechnical
p469
aVtechnology
p470
aVterm
p471
aVth
p472
aVtheatre
p473
aVtheory
p474
aVthesis
p475
aVtime
p476
aVtimeline
p477
aVtimesheet
p478
aVtimetable
p479
aVtitle
p480
aVtoday
p481
aVtoggle
p482
aVtool
p483
aVtopic
p484
aVtour
p485
aVtrack
p486
aVtranscript
p487
aVtransfer
p488
aVtransit
p489
aVtransportation
p490
aVtuition
p491
aVtweet
p492
aVtwitter
p493
aVundergrad
p494
aVundergraduate
p495
aVuniversity
p496
aVupcoming
p497
aVupdate
p498
aVusing
p499
aVuv
p500
aVuvic
p501
aVuvicca
p502
aVveteran
p503
aVvideo
p504
aVview
p505
aVvikes
p506
aVvirtual
p507
aVvision
p508
aVvisit
p509
aVvisiting
p510
aVvisitor
p511
aVvisualization
p512
aVwaterloo
p513
aVway
p514
aVwebsite
p515
aVwelcome
p516
aVwindow
p517
aVwireless
p518
aVwoman
p519
aVworkshop
p520
aVworld
p521
aVyear
p522
aVyoutube
p523
atp524
bsS'name'
p525
Nstp526
Rp527
.